; Function Attrs: mustprogress nounwind uwtable
define hidden void @_ZN19OpenColorIO_v2_5dev12MatrixOpDataD0Ev(ptr noundef nonnull align 8 dereferenceable(260) initializes((0, 8), (168, 176)) %0) unnamed_addr #15 align 2 personality ptr @__gxx_personality_v0 {
  store ptr getelementptr inbounds nuw inrange(-16, 88) (i8, ptr @_ZTVN19OpenColorIO_v2_5dev12MatrixOpDataE, i64 16), ptr %0, align 8, !tbaa !15
  %2 = getelementptr inbounds nuw i8, ptr %0, i64 168
  store ptr getelementptr inbounds nuw inrange(-16, 72) (i8, ptr @_ZTVN19OpenColorIO_v2_5dev6ArrayTIdEE, i64 16), ptr %2, align 8, !tbaa !15
  %3 = getelementptr inbounds nuw i8, ptr %0, i64 192
  %4 = load ptr, ptr %3, align 8, !tbaa !9
  %.not.i.i.i.i.i = icmp eq ptr %4, null
  br i1 %.not.i.i.i.i.i, label %_ZN19OpenColorIO_v2_5dev12MatrixOpDataD2Ev.exit, label %5

5:                                                ; preds = %1
  %6 = getelementptr inbounds nuw i8, ptr %0, i64 208
  %7 = load ptr, ptr %6, align 8, !tbaa !28
  %8 = ptrtoint ptr %7 to i64
  %9 = ptrtoint ptr %4 to i64
  %10 = sub i64 %8, %9
  tail call void @_ZdlPvm(ptr noundef nonnull %4, i64 noundef %10) #36
  br label %_ZN19OpenColorIO_v2_5dev12MatrixOpDataD2Ev.exit

_ZN19OpenColorIO_v2_5dev12MatrixOpDataD2Ev.exit:  ; preds = %1, %5
  store ptr getelementptr inbounds nuw inrange(-16, 88) (i8, ptr @_ZTVN19OpenColorIO_v2_5dev6OpDataE, i64 16), ptr %0, align 8, !tbaa !15
  %11 = getelementptr inbounds nuw i8, ptr %0, i64 48
  tail call void @_ZN19OpenColorIO_v2_5dev18FormatMetadataImplD1Ev(ptr noundef nonnull align 8 dereferenceable(120) %11) #34
  tail call void @_ZdlPvm(ptr noundef nonnull %0, i64 noundef 264) #36
  ret void
}